target datalayout = "e-m:e-p270:32:32-p271:32:32-p272:64:64-i64:64-i128:128-f80:128-n8:16:32:64-S128"
target triple = "x86_64-pc-linux-gnu"

%struct.slurm_conf_t = type { i64, ptr, i16, ptr, ptr, ptr, ptr, ptr, i16, ptr, ptr, ptr, ptr, ptr, ptr, ptr, i16, ptr, ptr, ptr, ptr, i16, ptr, ptr, ptr, i64, ptr, ptr, ptr, ptr, i16, ptr, ptr, i16, i32, ptr, i32, ptr, i32, i32, ptr, ptr, i64, i64, ptr, i16, i16, ptr, i32, i32, ptr, i32, ptr, i32, i16, i16, i16, ptr, i16, i16, ptr, ptr, i32, i16, i16, ptr, i32, i16, ptr, ptr, ptr, ptr, i16, ptr, ptr, ptr, ptr, i32, ptr, ptr, ptr, ptr, i16, i16, ptr, i32, i32, i32, i16, i16, ptr, ptr, i16, ptr, ptr, i32, i32, i32, i32, i32, i64, i32, i32, i16, ptr, ptr, i32, ptr, ptr, ptr, i16, i32, ptr, ptr, i16, ptr, ptr, i32, i16, ptr, ptr, ptr, ptr, i32, i32, i16, i16, i32, ptr, i16, ptr, i32, i32, i32, i32, i32, i32, ptr, i16, ptr, ptr, i32, i16, ptr, i32, i16, i16, ptr, ptr, ptr, i16, ptr, ptr, ptr, ptr, i16, i16, ptr, i16, ptr, i16, ptr, i16, ptr, i16, ptr, ptr, ptr, ptr, i16, ptr, ptr, ptr, i32, ptr, i32, ptr, ptr, i16, ptr, ptr, i32, i16, ptr, ptr, i16, i16, ptr, i16, ptr, ptr, ptr, i32, ptr, i16, i16, ptr, ptr, ptr, ptr, ptr, ptr, ptr, ptr, i16, i32, i16, ptr, ptr, ptr, ptr, i32, ptr, ptr, ptr, i16, ptr, ptr, ptr, i16, ptr, i16, ptr, i16, i16, ptr }

@stdout = external global ptr, align 8
@.str.76 = private unnamed_addr constant [4 x i8] c"%s\0A\00", align 1
@.str.203 = private unnamed_addr constant [7 x i8] c"slurmd\00", align 1
@.str.207 = private unnamed_addr constant [10 x i8] c"localhost\00", align 1
@.str.210 = private unnamed_addr constant [2 x i8] c",\00", align 1
@.str.211 = private unnamed_addr constant [11 x i8] c"slurmctld \00", align 1

; Function Attrs: nounwind uwtable
define internal void @_print_daemons() #0 {
  %1 = alloca ptr, align 8
  %2 = alloca [64 x i8], align 16
  %3 = alloca [64 x i8], align 16
  %4 = alloca ptr, align 8
  %5 = alloca ptr, align 8
  %6 = alloca ptr, align 8
  %7 = alloca ptr, align 8
  %8 = alloca i32, align 4
  %9 = alloca i32, align 4
  %10 = alloca i32, align 4
  %11 = alloca i32, align 4
  %12 = alloca ptr, align 8
  call void @llvm.lifetime.start.p0(i64 8, ptr %1) #12
  call void @llvm.lifetime.start.p0(i64 64, ptr %2) #12
  call void @llvm.lifetime.start.p0(i64 64, ptr %3) #12
  call void @llvm.lifetime.start.p0(i64 8, ptr %4) #12
  call void @llvm.lifetime.start.p0(i64 8, ptr %5) #12
  call void @llvm.lifetime.start.p0(i64 8, ptr %6) #12
  call void @llvm.lifetime.start.p0(i64 8, ptr %7) #12
  store ptr null, ptr %7, align 8
  call void @llvm.lifetime.start.p0(i64 4, ptr %8) #12
  store i32 0, ptr %8, align 4
  call void @llvm.lifetime.start.p0(i64 4, ptr %9) #12
  store i32 0, ptr %9, align 4
  call void @llvm.lifetime.start.p0(i64 4, ptr %10) #12
  store i32 0, ptr %10, align 4
  call void @llvm.lifetime.start.p0(i64 4, ptr %11) #12
  call void @llvm.lifetime.start.p0(i64 8, ptr %12) #12
  store ptr null, ptr %12, align 8
  %13 = call ptr @slurm_conf_lock()
  store ptr %13, ptr %1, align 8
  %14 = getelementptr inbounds [64 x i8], ptr %2, i64 0, i64 0
  %15 = call i32 @gethostname_short(ptr noundef %14, i64 noundef 64)
  %16 = getelementptr inbounds [64 x i8], ptr %3, i64 0, i64 0
  %17 = call i32 @gethostname(ptr noundef %16, i64 noundef 64) #12
  store i32 0, ptr %11, align 4
  br label %18

18:                                               ; preds = %70, %0
  %19 = load i32, ptr %11, align 4
  %20 = load ptr, ptr %1, align 8
  %21 = getelementptr inbounds nuw %struct.slurm_conf_t, ptr %20, i32 0, i32 36
  %22 = load i32, ptr %21, align 8
  %23 = icmp ult i32 %19, %22
  br i1 %23, label %24, label %73

24:                                               ; preds = %18
  %25 = load ptr, ptr %1, align 8
  %26 = getelementptr inbounds nuw %struct.slurm_conf_t, ptr %25, i32 0, i32 37
  %27 = load ptr, ptr %26, align 8
  %28 = load i32, ptr %11, align 4
  %29 = sext i32 %28 to i64
  %30 = getelementptr inbounds ptr, ptr %27, i64 %29
  %31 = load ptr, ptr %30, align 8
  %32 = icmp ne ptr %31, null
  br i1 %32, label %34, label %33

33:                                               ; preds = %24
  br label %73

34:                                               ; preds = %24
  store i32 1, ptr %8, align 4
  %35 = load ptr, ptr %1, align 8
  %36 = getelementptr inbounds nuw %struct.slurm_conf_t, ptr %35, i32 0, i32 37
  %37 = load ptr, ptr %36, align 8
  %38 = load i32, ptr %11, align 4
  %39 = sext i32 %38 to i64
  %40 = getelementptr inbounds ptr, ptr %37, i64 %39
  %41 = load ptr, ptr %40, align 8
  %42 = call ptr @xstrdup(ptr noundef %41)
  store ptr %42, ptr %4, align 8
  %43 = load ptr, ptr %4, align 8
  %44 = call ptr @strtok_r(ptr noundef %43, ptr noundef @.str.210, ptr noundef %7) #12
  store ptr %44, ptr %6, align 8
  br label %45

45:                                               ; preds = %63, %34
  %46 = load ptr, ptr %6, align 8
  %47 = icmp ne ptr %46, null
  br i1 %47, label %48, label %65

48:                                               ; preds = %45
  %49 = load ptr, ptr %6, align 8
  %50 = getelementptr inbounds [64 x i8], ptr %2, i64 0, i64 0
  %51 = call i32 @xstrcmp(ptr noundef %49, ptr noundef %50)
  %52 = icmp ne i32 %51, 0
  br i1 %52, label %53, label %62

53:                                               ; preds = %48
  %54 = load ptr, ptr %6, align 8
  %55 = getelementptr inbounds [64 x i8], ptr %3, i64 0, i64 0
  %56 = call i32 @xstrcmp(ptr noundef %54, ptr noundef %55)
  %57 = icmp ne i32 %56, 0
  br i1 %57, label %58, label %62

58:                                               ; preds = %53
  %59 = load ptr, ptr %6, align 8
  %60 = call i32 @xstrcasecmp(ptr noundef %59, ptr noundef @.str.207)
  %61 = icmp ne i32 %60, 0
  br i1 %61, label %63, label %62

62:                                               ; preds = %58, %53, %48
  store i32 1, ptr %9, align 4
  br label %65

63:                                               ; preds = %58
  %64 = call ptr @strtok_r(ptr noundef null, ptr noundef @.str.210, ptr noundef %7) #12
  store ptr %64, ptr %6, align 8
  br label %45, !llvm.loop !32

65:                                               ; preds = %62, %45
  call void @slurm_xfree(ptr noundef %4)
  %66 = load i32, ptr %9, align 4
  %67 = icmp ne i32 %66, 0
  br i1 %67, label %68, label %69

68:                                               ; preds = %65
  br label %73

69:                                               ; preds = %65
  br label %70

70:                                               ; preds = %69
  %71 = load i32, ptr %11, align 4
  %72 = add nsw i32 %71, 1
  store i32 %72, ptr %11, align 4
  br label %18, !llvm.loop !33

73:                                               ; preds = %68, %33, %18
  call void @slurm_conf_unlock()
  %74 = getelementptr inbounds [64 x i8], ptr %2, i64 0, i64 0
  %75 = call ptr @slurm_conf_get_nodename(ptr noundef %74)
  store ptr %75, ptr %5, align 8
  %76 = icmp ne ptr %75, null
  br i1 %76, label %77, label %78

77:                                               ; preds = %73
  store i32 1, ptr %10, align 4
  call void @slurm_xfree(ptr noundef %5)
  br label %88

78:                                               ; preds = %73
  %79 = call ptr @slurm_conf_get_aliased_nodename()
  store ptr %79, ptr %5, align 8
  %80 = icmp ne ptr %79, null
  br i1 %80, label %81, label %82

81:                                               ; preds = %78
  store i32 1, ptr %10, align 4
  call void @slurm_xfree(ptr noundef %5)
  br label %87

82:                                               ; preds = %78
  %83 = call ptr @slurm_conf_get_nodename(ptr noundef @.str.207)
  store ptr %83, ptr %5, align 8
  %84 = icmp ne ptr %83, null
  br i1 %84, label %85, label %86

85:                                               ; preds = %82
  store i32 1, ptr %10, align 4
  call void @slurm_xfree(ptr noundef %5)
  br label %86

86:                                               ; preds = %85, %82
  br label %87

87:                                               ; preds = %86, %81
  br label %88

88:                                               ; preds = %87, %77
  %89 = load i32, ptr %8, align 4
  %90 = icmp ne i32 %89, 0
  br i1 %90, label %91, label %95

91:                                               ; preds = %88
  %92 = load i32, ptr %9, align 4
  %93 = icmp ne i32 %92, 0
  br i1 %93, label %94, label %95

94:                                               ; preds = %91
  call void @_xstrcat(ptr noundef %12, ptr noundef @.str.211)
  br label %95

95:                                               ; preds = %94, %91, %88
  %96 = load i32, ptr %8, align 4
  %97 = icmp ne i32 %96, 0
  br i1 %97, label %98, label %102

98:                                               ; preds = %95
  %99 = load i32, ptr %10, align 4
  %100 = icmp ne i32 %99, 0
  br i1 %100, label %101, label %102

101:                                              ; preds = %98
  call void @_xstrcat(ptr noundef %12, ptr noundef @.str.203)
  br label %102

102:                                              ; preds = %101, %98, %95
  %103 = load ptr, ptr @stdout, align 8
  %104 = load ptr, ptr %12, align 8
  %105 = call i32 (ptr, ptr, ...) @fprintf(ptr noundef %103, ptr noundef @.str.76, ptr noundef %104) #12
  call void @slurm_xfree(ptr noundef %12)
  call void @llvm.lifetime.end.p0(i64 8, ptr %12) #12
  call void @llvm.lifetime.end.p0(i64 4, ptr %11) #12
  call void @llvm.lifetime.end.p0(i64 4, ptr %10) #12
  call void @llvm.lifetime.end.p0(i64 4, ptr %9) #12
  call void @llvm.lifetime.end.p0(i64 4, ptr %8) #12
  call void @llvm.lifetime.end.p0(i64 8, ptr %7) #12
  call void @llvm.lifetime.end.p0(i64 8, ptr %6) #12
  call void @llvm.lifetime.end.p0(i64 8, ptr %5) #12
  call void @llvm.lifetime.end.p0(i64 8, ptr %4) #12
  call void @llvm.lifetime.end.p0(i64 64, ptr %3) #12
  call void @llvm.lifetime.end.p0(i64 64, ptr %2) #12
  call void @llvm.lifetime.end.p0(i64 8, ptr %1) #12
  ret void
}