; Function Attrs: nounwind uwtable
define internal fastcc void @_print_daemons() unnamed_addr #8 {
  %1 = alloca [64 x i8], align 16
  %2 = alloca [64 x i8], align 16
  %3 = alloca ptr, align 8
  %4 = alloca ptr, align 8
  %5 = alloca ptr, align 8
  %6 = alloca ptr, align 8
  call void @llvm.lifetime.start.p0(i64 64, ptr nonnull %1) #18
  call void @llvm.lifetime.start.p0(i64 64, ptr nonnull %2) #18
  call void @llvm.lifetime.start.p0(i64 8, ptr nonnull %3) #18
  call void @llvm.lifetime.start.p0(i64 8, ptr nonnull %4) #18
  call void @llvm.lifetime.start.p0(i64 8, ptr nonnull %5) #18
  store ptr null, ptr %5, align 8
  call void @llvm.lifetime.start.p0(i64 8, ptr nonnull %6) #18
  store ptr null, ptr %6, align 8
  %7 = tail call ptr @slurm_conf_lock() #18
  %8 = call i32 @gethostname_short(ptr noundef nonnull %1, i64 noundef 64) #18
  %9 = call i32 @gethostname(ptr noundef nonnull %2, i64 noundef 64) #18
  %10 = getelementptr inbounds nuw i8, ptr %7, i64 280
  %11 = load i32, ptr %10, align 8
  %.not41 = icmp eq i32 %11, 0
  br i1 %.not41, label %.loopexit, label %.lr.ph38

.lr.ph38:                                         ; preds = %0
  %12 = getelementptr inbounds nuw i8, ptr %7, i64 288
  %13 = load ptr, ptr %12, align 8
  %14 = load ptr, ptr %13, align 8
  %.not43.not = icmp eq ptr %14, null
  br i1 %.not43.not, label %.loopexit, label %.lr.ph45

15:                                               ; preds = %._crit_edge
  %16 = load ptr, ptr %12, align 8
  %17 = getelementptr inbounds nuw ptr, ptr %16, i64 %indvars.iv.next
  %18 = load ptr, ptr %17, align 8
  %.not = icmp eq ptr %18, null
  br i1 %.not, label %.loopexit, label %.lr.ph45, !llvm.loop !31

.lr.ph45:                                         ; preds = %.lr.ph38, %15
  %19 = phi ptr [ %18, %15 ], [ %14, %.lr.ph38 ]
  %indvars.iv44 = phi i64 [ %indvars.iv.next, %15 ], [ 0, %.lr.ph38 ]
  %20 = call ptr @xstrdup(ptr noundef nonnull %19) #18
  store ptr %20, ptr %3, align 8
  %21 = call ptr @strtok_r(ptr noundef %20, ptr noundef nonnull @.str.210, ptr noundef nonnull %5) #18
  %.not2433 = icmp eq ptr %21, null
  br i1 %.not2433, label %._crit_edge, label %.lr.ph

.lr.ph:                                           ; preds = %.lr.ph45, %27
  %.02234 = phi ptr [ %28, %27 ], [ %21, %.lr.ph45 ]
  %22 = call i32 @xstrcmp(ptr noundef nonnull %.02234, ptr noundef nonnull %1) #18
  %.not25 = icmp eq i32 %22, 0
  br i1 %.not25, label %29, label %23

23:                                               ; preds = %.lr.ph
  %24 = call i32 @xstrcmp(ptr noundef nonnull %.02234, ptr noundef nonnull %2) #18
  %.not26 = icmp eq i32 %24, 0
  br i1 %.not26, label %29, label %25

25:                                               ; preds = %23
  %26 = call i32 @xstrcasecmp(ptr noundef nonnull %.02234, ptr noundef nonnull @.str.207) #18
  %.not27 = icmp eq i32 %26, 0
  br i1 %.not27, label %29, label %27

27:                                               ; preds = %25
  %28 = call ptr @strtok_r(ptr noundef null, ptr noundef nonnull @.str.210, ptr noundef nonnull %5) #18
  %.not24 = icmp eq ptr %28, null
  br i1 %.not24, label %._crit_edge, label %.lr.ph, !llvm.loop !32

29:                                               ; preds = %.lr.ph, %23, %25
  call void @slurm_xfree(ptr noundef nonnull %3) #18
  br label %.loopexit

._crit_edge:                                      ; preds = %27, %.lr.ph45
  call void @slurm_xfree(ptr noundef nonnull %3) #18
  %indvars.iv.next = add nuw nsw i64 %indvars.iv44, 1
  %30 = load i32, ptr %10, align 8
  %31 = zext i32 %30 to i64
  %32 = icmp samesign ult i64 %indvars.iv.next, %31
  br i1 %32, label %15, label %.loopexit, !llvm.loop !31

.loopexit:                                        ; preds = %15, %._crit_edge, %.lr.ph38, %0, %29
  %.121 = phi i1 [ true, %29 ], [ false, %0 ], [ false, %.lr.ph38 ], [ true, %._crit_edge ], [ true, %15 ]
  %33 = phi i1 [ true, %29 ], [ false, %0 ], [ false, %.lr.ph38 ], [ false, %._crit_edge ], [ false, %15 ]
  call void @slurm_conf_unlock() #18
  %34 = call ptr @slurm_conf_get_nodename(ptr noundef nonnull %1) #18
  store ptr %34, ptr %4, align 8
  %.not29 = icmp eq ptr %34, null
  br i1 %.not29, label %35, label %.sink.split

35:                                               ; preds = %.loopexit
  %36 = call ptr @slurm_conf_get_aliased_nodename() #18
  store ptr %36, ptr %4, align 8
  %.not30 = icmp eq ptr %36, null
  br i1 %.not30, label %37, label %.sink.split

37:                                               ; preds = %35
  %38 = call ptr @slurm_conf_get_nodename(ptr noundef nonnull @.str.207) #18
  store ptr %38, ptr %4, align 8
  %.not31 = icmp eq ptr %38, null
  br i1 %.not31, label %39, label %.sink.split

.sink.split:                                      ; preds = %37, %35, %.loopexit
  call void @slurm_xfree(ptr noundef nonnull %4) #18
  br label %39

39:                                               ; preds = %.sink.split, %37
  %40 = phi i1 [ false, %37 ], [ true, %.sink.split ]
  %or.cond = and i1 %.121, %33
  br i1 %or.cond, label %41, label %42

41:                                               ; preds = %39
  call void @_xstrcat(ptr noundef nonnull %6, ptr noundef nonnull @.str.211) #18
  br label %42

42:                                               ; preds = %41, %39
  %or.cond3 = and i1 %.121, %40
  br i1 %or.cond3, label %43, label %44

43:                                               ; preds = %42
  call void @_xstrcat(ptr noundef nonnull %6, ptr noundef nonnull @.str.203) #18
  br label %44

44:                                               ; preds = %43, %42
  %45 = load ptr, ptr @stdout, align 8
  %46 = load ptr, ptr %6, align 8
  %47 = call i32 (ptr, ptr, ...) @fprintf(ptr noundef %45, ptr noundef nonnull @.str.76, ptr noundef %46) #18
  call void @slurm_xfree(ptr noundef nonnull %6) #18
  call void @llvm.lifetime.end.p0(i64 8, ptr nonnull %6) #18
  call void @llvm.lifetime.end.p0(i64 8, ptr nonnull %5) #18
  call void @llvm.lifetime.end.p0(i64 8, ptr nonnull %4) #18
  call void @llvm.lifetime.end.p0(i64 8, ptr nonnull %3) #18
  call void @llvm.lifetime.end.p0(i64 64, ptr nonnull %2) #18
  call void @llvm.lifetime.end.p0(i64 64, ptr nonnull %1) #18
  ret void
}